; Function Attrs: nofree nounwind uwtable
define void @Llb_MnxCheckNextStateVars(ptr noundef readonly captures(none) %0) local_unnamed_addr #3 {
  %2 = load ptr, ptr %0, align 8, !tbaa !93
  %3 = getelementptr i8, ptr %2, i64 104
  %.val20 = load i32, ptr %3, align 8, !tbaa !45
  %4 = icmp sgt i32 %.val20, 0
  br i1 %4, label %.lr.ph, label %.critedge

.lr.ph:                                           ; preds = %1
  %5 = getelementptr inbounds nuw i8, ptr %2, i64 24
  %6 = load ptr, ptr %5, align 8, !tbaa !33
  %7 = getelementptr i8, ptr %2, i64 112
  %.val17 = load i32, ptr %7, align 8, !tbaa !34
  %8 = getelementptr i8, ptr %6, i64 8
  %.val = load ptr, ptr %8, align 8, !tbaa !25
  %9 = getelementptr i8, ptr %2, i64 108
  %10 = sext i32 %.val17 to i64
  %wide.trip.count = zext nneg i32 %.val20 to i64
  %invariant.gep = getelementptr ptr, ptr %.val, i64 %10
  br label %11

11:                                               ; preds = %.lr.ph, %Saig_ObjIsLo.exit.thread
  %indvars.iv = phi i64 [ 0, %.lr.ph ], [ %indvars.iv.next, %Saig_ObjIsLo.exit.thread ]
  %.026 = phi i32 [ 0, %.lr.ph ], [ %.1, %Saig_ObjIsLo.exit.thread ]
  %.01325 = phi i32 [ 0, %.lr.ph ], [ %.114, %Saig_ObjIsLo.exit.thread ]
  %gep = getelementptr ptr, ptr %invariant.gep, i64 %indvars.iv
  %12 = load ptr, ptr %gep, align 8, !tbaa !26
  %13 = getelementptr i8, ptr %12, i64 8
  %.val18 = load ptr, ptr %13, align 8, !tbaa !35
  %14 = ptrtoint ptr %.val18 to i64
  %15 = and i64 %14, -2
  %16 = inttoptr i64 %15 to ptr
  %17 = getelementptr i8, ptr %16, i64 24
  %.val3.i = load i64, ptr %17, align 8
  %18 = and i64 %.val3.i, 7
  %.not.i = icmp eq i64 %18, 2
  br i1 %.not.i, label %Saig_ObjIsLo.exit, label %Saig_ObjIsLo.exit.thread

Saig_ObjIsLo.exit:                                ; preds = %11
  %.val4.i = load i32, ptr %16, align 8, !tbaa !21
  %.val.i = load i32, ptr %9, align 4, !tbaa !41
  %.not23 = icmp slt i32 %.val4.i, %.val.i
  br i1 %.not23, label %Saig_ObjIsLo.exit.thread, label %19

19:                                               ; preds = %Saig_ObjIsLo.exit
  %20 = and i64 %14, 1
  %.not16 = icmp eq i64 %20, 0
  br i1 %.not16, label %23, label %21

21:                                               ; preds = %19
  %22 = add nsw i32 %.01325, 1
  br label %Saig_ObjIsLo.exit.thread

23:                                               ; preds = %19
  %24 = add nsw i32 %.026, 1
  br label %Saig_ObjIsLo.exit.thread

Saig_ObjIsLo.exit.thread:                         ; preds = %11, %Saig_ObjIsLo.exit, %23, %21
  %.114 = phi i32 [ %22, %21 ], [ %.01325, %23 ], [ %.01325, %Saig_ObjIsLo.exit ], [ %.01325, %11 ]
  %.1 = phi i32 [ %.026, %21 ], [ %24, %23 ], [ %.026, %Saig_ObjIsLo.exit ], [ %.026, %11 ]
  %indvars.iv.next = add nuw nsw i64 %indvars.iv, 1
  %exitcond.not = icmp eq i64 %indvars.iv.next, %wide.trip.count
  br i1 %exitcond.not, label %.critedge, label %11, !llvm.loop !143

.critedge:                                        ; preds = %Saig_ObjIsLo.exit.thread, %1
  %.013.lcssa = phi i32 [ 0, %1 ], [ %.114, %Saig_ObjIsLo.exit.thread ]
  %.0.lcssa = phi i32 [ 0, %1 ], [ %.1, %Saig_ObjIsLo.exit.thread ]
  %25 = tail call i32 (ptr, ...) @printf(ptr noundef nonnull dereferenceable(1) @.str.30, i32 noundef %.val20, i32 noundef %.0.lcssa, i32 noundef %.013.lcssa)
  ret void
}